target datalayout = "e-m:e-p270:32:32-p271:32:32-p272:64:64-i64:64-i128:128-f80:128-n8:16:32:64-S128"
target triple = "x86_64-pc-linux-gnu"

%struct.PartitionKeyData = type { i32, i16, ptr, ptr, ptr, ptr, ptr, ptr, ptr, ptr, ptr, ptr, ptr, ptr }
%struct.PartitionRangeBound = type { i32, ptr, ptr, i8 }
%struct.FmgrInfo = type { ptr, i32, i16, i8, i8, i8, ptr, ptr, ptr }

; Function Attrs: inlinehint nounwind uwtable
define internal i32 @DatumGetInt32(i64 noundef %0) #5 {
  %2 = alloca i64, align 8
  store i64 %0, ptr %2, align 8
  %3 = load i64, ptr %2, align 8
  %4 = trunc i64 %3 to i32
  ret i32 %4
}

; Function Attrs: nounwind uwtable
define internal i32 @partition_rbound_cmp(i32 noundef %0, ptr noundef %1, ptr noundef %2, ptr noundef %3, ptr noundef %4, i1 noundef zeroext %5, ptr noundef %6) #0 {
  %8 = alloca i32, align 4
  %9 = alloca i32, align 4
  %10 = alloca ptr, align 8
  %11 = alloca ptr, align 8
  %12 = alloca ptr, align 8
  %13 = alloca ptr, align 8
  %14 = alloca i8, align 1
  %15 = alloca ptr, align 8
  %16 = alloca i32, align 4
  %17 = alloca i32, align 4
  %18 = alloca i32, align 4
  %19 = alloca ptr, align 8
  %20 = alloca ptr, align 8
  %21 = alloca i8, align 1
  %22 = alloca i32, align 4
  store i32 %0, ptr %9, align 4
  store ptr %1, ptr %10, align 8
  store ptr %2, ptr %11, align 8
  store ptr %3, ptr %12, align 8
  store ptr %4, ptr %13, align 8
  %23 = zext i1 %5 to i8
  store i8 %23, ptr %14, align 1
  store ptr %6, ptr %15, align 8
  call void @llvm.lifetime.start.p0(i64 4, ptr %16) #9
  store i32 0, ptr %16, align 4
  call void @llvm.lifetime.start.p0(i64 4, ptr %17) #9
  store i32 0, ptr %17, align 4
  call void @llvm.lifetime.start.p0(i64 4, ptr %18) #9
  call void @llvm.lifetime.start.p0(i64 8, ptr %19) #9
  %24 = load ptr, ptr %15, align 8
  %25 = getelementptr inbounds nuw %struct.PartitionRangeBound, ptr %24, i32 0, i32 1
  %26 = load ptr, ptr %25, align 8
  store ptr %26, ptr %19, align 8
  call void @llvm.lifetime.start.p0(i64 8, ptr %20) #9
  %27 = load ptr, ptr %15, align 8
  %28 = getelementptr inbounds nuw %struct.PartitionRangeBound, ptr %27, i32 0, i32 2
  %29 = load ptr, ptr %28, align 8
  store ptr %29, ptr %20, align 8
  call void @llvm.lifetime.start.p0(i64 1, ptr %21) #9
  %30 = load ptr, ptr %15, align 8
  %31 = getelementptr inbounds nuw %struct.PartitionRangeBound, ptr %30, i32 0, i32 3
  %32 = load i8, ptr %31, align 8, !range !6, !noundef !7
  %33 = trunc i8 %32 to i1
  %34 = zext i1 %33 to i8
  store i8 %34, ptr %21, align 1
  store i32 0, ptr %18, align 4
  br label %35

35:                                               ; preds = %106, %7
  %36 = load i32, ptr %18, align 4
  %37 = load i32, ptr %9, align 4
  %38 = icmp slt i32 %36, %37
  br i1 %38, label %39, label %109

39:                                               ; preds = %35
  %40 = load i32, ptr %16, align 4
  %41 = add i32 %40, 1
  store i32 %41, ptr %16, align 4
  %42 = load ptr, ptr %13, align 8
  %43 = load i32, ptr %18, align 4
  %44 = sext i32 %43 to i64
  %45 = getelementptr inbounds i32, ptr %42, i64 %44
  %46 = load i32, ptr %45, align 4
  %47 = load ptr, ptr %20, align 8
  %48 = load i32, ptr %18, align 4
  %49 = sext i32 %48 to i64
  %50 = getelementptr inbounds i32, ptr %47, i64 %49
  %51 = load i32, ptr %50, align 4
  %52 = icmp slt i32 %46, %51
  br i1 %52, label %53, label %56

53:                                               ; preds = %39
  %54 = load i32, ptr %16, align 4
  %55 = sub i32 0, %54
  store i32 %55, ptr %8, align 4
  store i32 1, ptr %22, align 4
  br label %140

56:                                               ; preds = %39
  %57 = load ptr, ptr %13, align 8
  %58 = load i32, ptr %18, align 4
  %59 = sext i32 %58 to i64
  %60 = getelementptr inbounds i32, ptr %57, i64 %59
  %61 = load i32, ptr %60, align 4
  %62 = load ptr, ptr %20, align 8
  %63 = load i32, ptr %18, align 4
  %64 = sext i32 %63 to i64
  %65 = getelementptr inbounds i32, ptr %62, i64 %64
  %66 = load i32, ptr %65, align 4
  %67 = icmp sgt i32 %61, %66
  br i1 %67, label %68, label %70

68:                                               ; preds = %56
  %69 = load i32, ptr %16, align 4
  store i32 %69, ptr %8, align 4
  store i32 1, ptr %22, align 4
  br label %140

70:                                               ; preds = %56
  %71 = load ptr, ptr %13, align 8
  %72 = load i32, ptr %18, align 4
  %73 = sext i32 %72 to i64
  %74 = getelementptr inbounds i32, ptr %71, i64 %73
  %75 = load i32, ptr %74, align 4
  %76 = icmp ne i32 %75, 0
  br i1 %76, label %77, label %78

77:                                               ; preds = %70
  br label %109

78:                                               ; preds = %70
  br label %79

79:                                               ; preds = %78
  br label %80

80:                                               ; preds = %79
  %81 = load ptr, ptr %10, align 8
  %82 = load i32, ptr %18, align 4
  %83 = sext i32 %82 to i64
  %84 = getelementptr inbounds %struct.FmgrInfo, ptr %81, i64 %83
  %85 = load ptr, ptr %11, align 8
  %86 = load i32, ptr %18, align 4
  %87 = sext i32 %86 to i64
  %88 = getelementptr inbounds i32, ptr %85, i64 %87
  %89 = load i32, ptr %88, align 4
  %90 = load ptr, ptr %12, align 8
  %91 = load i32, ptr %18, align 4
  %92 = sext i32 %91 to i64
  %93 = getelementptr inbounds i64, ptr %90, i64 %92
  %94 = load i64, ptr %93, align 8
  %95 = load ptr, ptr %19, align 8
  %96 = load i32, ptr %18, align 4
  %97 = sext i32 %96 to i64
  %98 = getelementptr inbounds i64, ptr %95, i64 %97
  %99 = load i64, ptr %98, align 8
  %100 = call i64 @FunctionCall2Coll(ptr noundef %84, i32 noundef %89, i64 noundef %94, i64 noundef %99)
  %101 = call i32 @DatumGetInt32(i64 noundef %100)
  store i32 %101, ptr %17, align 4
  %102 = load i32, ptr %17, align 4
  %103 = icmp ne i32 %102, 0
  br i1 %103, label %104, label %105

104:                                              ; preds = %80
  br label %109

105:                                              ; preds = %80
  br label %106

106:                                              ; preds = %105
  %107 = load i32, ptr %18, align 4
  %108 = add i32 %107, 1
  store i32 %108, ptr %18, align 4
  br label %35, !llvm.loop !41

109:                                              ; preds = %104, %77, %35
  %110 = load i32, ptr %17, align 4
  %111 = icmp eq i32 %110, 0
  br i1 %111, label %112, label %124

112:                                              ; preds = %109
  %113 = load i8, ptr %14, align 1, !range !6, !noundef !7
  %114 = trunc i8 %113 to i1
  %115 = zext i1 %114 to i32
  %116 = load i8, ptr %21, align 1, !range !6, !noundef !7
  %117 = trunc i8 %116 to i1
  %118 = zext i1 %117 to i32
  %119 = icmp ne i32 %115, %118
  br i1 %119, label %120, label %124

120:                                              ; preds = %112
  %121 = load i8, ptr %14, align 1, !range !6, !noundef !7
  %122 = trunc i8 %121 to i1
  %123 = select i1 %122, i32 1, i32 -1
  store i32 %123, ptr %17, align 4
  br label %124

124:                                              ; preds = %120, %112, %109
  %125 = load i32, ptr %17, align 4
  %126 = icmp eq i32 %125, 0
  br i1 %126, label %127, label %128

127:                                              ; preds = %124
  br label %138

128:                                              ; preds = %124
  %129 = load i32, ptr %17, align 4
  %130 = icmp slt i32 %129, 0
  br i1 %130, label %131, label %134

131:                                              ; preds = %128
  %132 = load i32, ptr %16, align 4
  %133 = sub i32 0, %132
  br label %136

134:                                              ; preds = %128
  %135 = load i32, ptr %16, align 4
  br label %136

136:                                              ; preds = %134, %131
  %137 = phi i32 [ %133, %131 ], [ %135, %134 ]
  br label %138

138:                                              ; preds = %136, %127
  %139 = phi i32 [ 0, %127 ], [ %137, %136 ]
  store i32 %139, ptr %8, align 4
  store i32 1, ptr %22, align 4
  br label %140

140:                                              ; preds = %138, %68, %53
  call void @llvm.lifetime.end.p0(i64 1, ptr %21) #9
  call void @llvm.lifetime.end.p0(i64 8, ptr %20) #9
  call void @llvm.lifetime.end.p0(i64 8, ptr %19) #9
  call void @llvm.lifetime.end.p0(i64 4, ptr %18) #9
  call void @llvm.lifetime.end.p0(i64 4, ptr %17) #9
  call void @llvm.lifetime.end.p0(i64 4, ptr %16) #9
  %141 = load i32, ptr %8, align 4
  ret i32 %141
}

; Function Attrs: nounwind uwtable
define internal i32 @qsort_partition_rbound_cmp(ptr noundef %0, ptr noundef %1, ptr noundef %2) #0 {
  %4 = alloca ptr, align 8
  %5 = alloca ptr, align 8
  %6 = alloca ptr, align 8
  %7 = alloca ptr, align 8
  %8 = alloca ptr, align 8
  %9 = alloca ptr, align 8
  store ptr %0, ptr %4, align 8
  store ptr %1, ptr %5, align 8
  store ptr %2, ptr %6, align 8
  call void @llvm.lifetime.start.p0(i64 8, ptr %7) #9
  %10 = load ptr, ptr %4, align 8
  %11 = load ptr, ptr %10, align 8
  store ptr %11, ptr %7, align 8
  call void @llvm.lifetime.start.p0(i64 8, ptr %8) #9
  %12 = load ptr, ptr %5, align 8
  %13 = load ptr, ptr %12, align 8
  store ptr %13, ptr %8, align 8
  call void @llvm.lifetime.start.p0(i64 8, ptr %9) #9
  %14 = load ptr, ptr %6, align 8
  store ptr %14, ptr %9, align 8
  %15 = load ptr, ptr %9, align 8
  %16 = getelementptr inbounds nuw %struct.PartitionKeyData, ptr %15, i32 0, i32 1
  %17 = load i16, ptr %16, align 4
  %18 = sext i16 %17 to i32
  %19 = load ptr, ptr %9, align 8
  %20 = getelementptr inbounds nuw %struct.PartitionKeyData, ptr %19, i32 0, i32 6
  %21 = load ptr, ptr %20, align 8
  %22 = load ptr, ptr %9, align 8
  %23 = getelementptr inbounds nuw %struct.PartitionKeyData, ptr %22, i32 0, i32 7
  %24 = load ptr, ptr %23, align 8
  %25 = load ptr, ptr %7, align 8
  %26 = getelementptr inbounds nuw %struct.PartitionRangeBound, ptr %25, i32 0, i32 1
  %27 = load ptr, ptr %26, align 8
  %28 = load ptr, ptr %7, align 8
  %29 = getelementptr inbounds nuw %struct.PartitionRangeBound, ptr %28, i32 0, i32 2
  %30 = load ptr, ptr %29, align 8
  %31 = load ptr, ptr %7, align 8
  %32 = getelementptr inbounds nuw %struct.PartitionRangeBound, ptr %31, i32 0, i32 3
  %33 = load i8, ptr %32, align 8, !range !6, !noundef !7
  %34 = trunc i8 %33 to i1
  %35 = load ptr, ptr %8, align 8
  %36 = call i32 @partition_rbound_cmp(i32 noundef %18, ptr noundef %21, ptr noundef %24, ptr noundef %27, ptr noundef %30, i1 noundef zeroext %34, ptr noundef %35)
  call void @llvm.lifetime.end.p0(i64 8, ptr %9) #9
  call void @llvm.lifetime.end.p0(i64 8, ptr %8) #9
  call void @llvm.lifetime.end.p0(i64 8, ptr %7) #9
  ret i32 %36
}