; Function Attrs: nounwind uwtable
define internal i32 @qsort_partition_rbound_cmp(ptr noundef readonly captures(none) %0, ptr noundef readonly captures(none) %1, ptr noundef readonly captures(none) %2) #0 {
  %4 = load ptr, ptr %0, align 8
  %5 = load ptr, ptr %1, align 8
  %6 = getelementptr inbounds nuw i8, ptr %2, i64 4
  %7 = load i16, ptr %6, align 4
  %8 = sext i16 %7 to i32
  %9 = getelementptr inbounds nuw i8, ptr %2, i64 40
  %10 = load ptr, ptr %9, align 8
  %11 = getelementptr inbounds nuw i8, ptr %2, i64 48
  %12 = load ptr, ptr %11, align 8
  %13 = getelementptr inbounds nuw i8, ptr %4, i64 8
  %14 = load ptr, ptr %13, align 8
  %15 = getelementptr inbounds nuw i8, ptr %4, i64 16
  %16 = load ptr, ptr %15, align 8
  %17 = getelementptr inbounds nuw i8, ptr %4, i64 24
  %18 = load i8, ptr %17, align 8, !range !6, !noundef !7
  %19 = trunc nuw i8 %18 to i1
  %20 = getelementptr inbounds nuw i8, ptr %5, i64 8
  %21 = load ptr, ptr %20, align 8
  %22 = getelementptr inbounds nuw i8, ptr %5, i64 16
  %23 = load ptr, ptr %22, align 8
  %24 = getelementptr inbounds nuw i8, ptr %5, i64 24
  %25 = load i8, ptr %24, align 8, !range !6, !noundef !7
  %26 = icmp sgt i16 %7, 0
  br i1 %26, label %.lr.ph.preheader.i, label %._crit_edge.i

.lr.ph.preheader.i:                               ; preds = %3
  %wide.trip.count.i = zext nneg i32 %8 to i64
  br label %.lr.ph.i

27:                                               ; preds = %38
  %exitcond.not.i = icmp eq i64 %indvars.iv.next.i, %wide.trip.count.i
  br i1 %exitcond.not.i, label %._crit_edge.i, label %.lr.ph.i, !llvm.loop !41

.lr.ph.i:                                         ; preds = %27, %.lr.ph.preheader.i
  %indvars.iv.i = phi i64 [ 0, %.lr.ph.preheader.i ], [ %indvars.iv.next.i, %27 ]
  %indvars.iv.next.i = add nuw nsw i64 %indvars.iv.i, 1
  %28 = getelementptr inbounds nuw i32, ptr %16, i64 %indvars.iv.i
  %29 = load i32, ptr %28, align 4
  %30 = getelementptr inbounds nuw i32, ptr %23, i64 %indvars.iv.i
  %31 = load i32, ptr %30, align 4
  %32 = icmp slt i32 %29, %31
  br i1 %32, label %33, label %35

33:                                               ; preds = %.lr.ph.i
  %indvars72.i = trunc i64 %indvars.iv.i to i32
  %34 = xor i32 %indvars72.i, -1
  br label %partition_rbound_cmp.exit

35:                                               ; preds = %.lr.ph.i
  %36 = icmp sgt i32 %29, %31
  br i1 %36, label %.loopexit.loopexit.i, label %37

37:                                               ; preds = %35
  %.not.i = icmp eq i32 %29, 0
  br i1 %.not.i, label %38, label %._crit_edge.loopexit.split.loop.exit.i

38:                                               ; preds = %37
  %39 = getelementptr inbounds nuw %struct.FmgrInfo, ptr %10, i64 %indvars.iv.i
  %40 = getelementptr inbounds nuw i32, ptr %12, i64 %indvars.iv.i
  %41 = load i32, ptr %40, align 4
  %42 = getelementptr inbounds nuw i64, ptr %14, i64 %indvars.iv.i
  %43 = load i64, ptr %42, align 8
  %44 = getelementptr inbounds nuw i64, ptr %21, i64 %indvars.iv.i
  %45 = load i64, ptr %44, align 8
  %46 = tail call i64 @FunctionCall2Coll(ptr noundef %39, i32 noundef %41, i64 noundef %43, i64 noundef %45) #12
  %47 = trunc i64 %46 to i32
  %.not44.i = icmp eq i32 %47, 0
  br i1 %.not44.i, label %27, label %.loopexit54.loopexit.i

._crit_edge.loopexit.split.loop.exit.i:           ; preds = %37
  %indvars.le.i = trunc i64 %indvars.iv.next.i to i32
  br label %._crit_edge.i

._crit_edge.i:                                    ; preds = %27, %._crit_edge.loopexit.split.loop.exit.i, %3
  %.1.ph.i = phi i32 [ 0, %3 ], [ %indvars.le.i, %._crit_edge.loopexit.split.loop.exit.i ], [ %8, %27 ]
  %.not4548.i = icmp eq i8 %25, %18
  %48 = select i1 %19, i32 1, i32 -1
  %spec.select49.i = select i1 %.not4548.i, i32 0, i32 %48
  br label %.loopexit54.i

.loopexit54.loopexit.i:                           ; preds = %38
  %indvars.le83.i = trunc i64 %indvars.iv.next.i to i32
  br label %.loopexit54.i

.loopexit54.i:                                    ; preds = %.loopexit54.loopexit.i, %._crit_edge.i
  %.151.i = phi i32 [ %.1.ph.i, %._crit_edge.i ], [ %indvars.le83.i, %.loopexit54.loopexit.i ]
  %49 = phi i32 [ %spec.select49.i, %._crit_edge.i ], [ %47, %.loopexit54.loopexit.i ]
  %50 = icmp eq i32 %49, 0
  %51 = icmp slt i32 %49, 0
  %52 = sub i32 0, %.151.i
  %53 = select i1 %51, i32 %52, i32 %.151.i
  %54 = select i1 %50, i32 0, i32 %53
  br label %partition_rbound_cmp.exit

.loopexit.loopexit.i:                             ; preds = %35
  %indvars.le85.i = trunc i64 %indvars.iv.next.i to i32
  br label %partition_rbound_cmp.exit

partition_rbound_cmp.exit:                        ; preds = %33, %.loopexit54.i, %.loopexit.loopexit.i
  %.0.i = phi i32 [ %34, %33 ], [ %54, %.loopexit54.i ], [ %indvars.le85.i, %.loopexit.loopexit.i ]
  ret i32 %.0.i
}